; ModuleID = '54/1145.c'
source_filename = "54/1145.c"
target datalayout = "e-m:e-p270:32:32-p271:32:32-p272:64:64-i64:64-f80:128-n8:16:32:64-S128"
target triple = "x86_64-pc-linux-gnu"

@.str = private unnamed_addr constant [5 x i8] c"%d%d\00", align 1
@.str.1 = private unnamed_addr constant [4 x i8] c"%d\0A\00", align 1

; Function Attrs: noinline nounwind uwtable
define dso_local i32 @Check(i32 %0, i32 %1, i32 %2, i32* %3, i32 %4) #0 {
  %6 = alloca i32, align 4
  %7 = alloca i32, align 4
  %8 = alloca i32, align 4
  %9 = alloca i32, align 4
  %10 = alloca i32*, align 8
  %11 = alloca i32, align 4
  store i32 %0, i32* %7, align 4
  store i32 %1, i32* %8, align 4
  store i32 %2, i32* %9, align 4
  store i32* %3, i32** %10, align 8
  store i32 %4, i32* %11, align 4
  %12 = load i32, i32* %11, align 4
  %13 = load i32, i32* %8, align 4
  %14 = icmp eq i32 %12, %13
  br i1 %14, label %15, label %16

15:                                               ; preds = %5
  store i32 1, i32* %6, align 4
  br label %50

16:                                               ; preds = %5
  %17 = load i32, i32* %7, align 4
  %18 = load i32, i32* %8, align 4
  %19 = mul nsw i32 %17, %18
  %20 = load i32, i32* %8, align 4
  %21 = sub nsw i32 %20, 1
  %22 = srem i32 %19, %21
  %23 = icmp eq i32 %22, 0
  br i1 %23, label %24, label %49

24:                                               ; preds = %16
  %25 = load i32, i32* %7, align 4
  %26 = load i32, i32* %8, align 4
  %27 = mul nsw i32 %25, %26
  %28 = load i32, i32* %8, align 4
  %29 = sub nsw i32 %28, 1
  %30 = sdiv i32 %27, %29
  %31 = load i32, i32* %9, align 4
  %32 = add nsw i32 %30, %31
  %33 = load i32*, i32** %10, align 8
  store i32 %32, i32* %33, align 4
  %34 = load i32, i32* %11, align 4
  %35 = add nsw i32 %34, 1
  store i32 %35, i32* %11, align 4
  %36 = load i32, i32* %7, align 4
  %37 = load i32, i32* %8, align 4
  %38 = mul nsw i32 %36, %37
  %39 = load i32, i32* %8, align 4
  %40 = sub nsw i32 %39, 1
  %41 = sdiv i32 %38, %40
  %42 = load i32, i32* %9, align 4
  %43 = add nsw i32 %41, %42
  %44 = load i32, i32* %8, align 4
  %45 = load i32, i32* %9, align 4
  %46 = load i32*, i32** %10, align 8
  %47 = load i32, i32* %11, align 4
  %48 = call i32 @Check(i32 %43, i32 %44, i32 %45, i32* %46, i32 %47)
  store i32 %48, i32* %6, align 4
  br label %50

49:                                               ; preds = %16
  store i32 0, i32* %6, align 4
  br label %50

50:                                               ; preds = %49, %24, %15
  %51 = load i32, i32* %6, align 4
  ret i32 %51
}

; Function Attrs: noinline nounwind uwtable
define dso_local i32 @main() #0 {
  %1 = alloca i32, align 4
  %2 = alloca i32, align 4
  %3 = alloca i32, align 4
  %4 = alloca i32*, align 8
  %5 = alloca i32, align 4
  %6 = alloca i32, align 4
  %7 = alloca i32, align 4
  store i32 0, i32* %1, align 4
  store i32 0, i32* %5, align 4
  %8 = call i32 (i8*, ...) @__isoc99_scanf(i8* getelementptr inbounds ([5 x i8], [5 x i8]* @.str, i64 0, i64 0), i32* %2, i32* %3)
  store i32* %6, i32** %4, align 8
  %9 = load i32*, i32** %4, align 8
  store i32 0, i32* %9, align 4
  store i32 1, i32* %7, align 4
  br label %10

10:                                               ; preds = %24, %0
  br i1 true, label %11, label %27

11:                                               ; preds = %10
  %12 = load i32, i32* %7, align 4
  %13 = load i32, i32* %2, align 4
  %14 = load i32, i32* %3, align 4
  %15 = load i32*, i32** %4, align 8
  %16 = load i32, i32* %5, align 4
  %17 = call i32 @Check(i32 %12, i32 %13, i32 %14, i32* %15, i32 %16)
  %18 = icmp ne i32 %17, 0
  br i1 %18, label %19, label %23

19:                                               ; preds = %11
  %20 = load i32*, i32** %4, align 8
  %21 = load i32, i32* %20, align 4
  %22 = call i32 (i8*, ...) @printf(i8* getelementptr inbounds ([4 x i8], [4 x i8]* @.str.1, i64 0, i64 0), i32 %21)
  br label %27

23:                                               ; preds = %11
  br label %24

24:                                               ; preds = %23
  %25 = load i32, i32* %7, align 4
  %26 = add nsw i32 %25, 1
  store i32 %26, i32* %7, align 4
  br label %10

27:                                               ; preds = %19, %10
  ret i32 0
}

declare dso_local i32 @__isoc99_scanf(i8*, ...) #1

declare dso_local i32 @printf(i8*, ...) #1


!llvm.module.flags = !{!0}
!llvm.ident = !{!1}

!0 = !{i32 1, !"wchar_size", i32 4}
!1 = !{!"clang version 10.0.0-4ubuntu1 "}
